; ModuleID = '50/565.c'
source_filename = "50/565.c"
target datalayout = "e-m:e-p270:32:32-p271:32:32-p272:64:64-i64:64-f80:128-n8:16:32:64-S128"
target triple = "x86_64-pc-linux-gnu"

@__const.main.m = private unnamed_addr constant <{ [12 x i32], [88 x i32] }> <{ [12 x i32] [i32 31, i32 28, i32 31, i32 30, i32 31, i32 30, i32 31, i32 31, i32 30, i32 31, i32 30, i32 31], [88 x i32] zeroinitializer }>, align 16
@.str = private unnamed_addr constant [3 x i8] c"%d\00", align 1
@.str.1 = private unnamed_addr constant [4 x i8] c"%d\0A\00", align 1

; Function Attrs: noinline nounwind uwtable
define dso_local i32 @main() #0 {
  %1 = alloca i32, align 4
  %2 = alloca i32, align 4
  %3 = alloca [100 x i32], align 16
  %4 = alloca i32, align 4
  %5 = alloca i32, align 4
  %6 = alloca i32, align 4
  %7 = alloca [100 x i32], align 16
  store i32 0, i32* %1, align 4
  %8 = bitcast [100 x i32]* %7 to i8*
  call void @llvm.memcpy.p0i8.p0i8.i64(i8* align 16 %8, i8* align 16 bitcast (<{ [12 x i32], [88 x i32] }>* @__const.main.m to i8*), i64 400, i1 false)
  %9 = call i32 (i8*, ...) @__isoc99_scanf(i8* getelementptr inbounds ([3 x i8], [3 x i8]* @.str, i64 0, i64 0), i32* %6)
  store i32 1, i32* %2, align 4
  br label %10

10:                                               ; preds = %37, %0
  %11 = load i32, i32* %2, align 4
  %12 = icmp sle i32 %11, 12
  br i1 %12, label %13, label %40

13:                                               ; preds = %10
  %14 = load i32, i32* %2, align 4
  %15 = icmp eq i32 %14, 1
  br i1 %15, label %16, label %18

16:                                               ; preds = %13
  %17 = getelementptr inbounds [100 x i32], [100 x i32]* %3, i64 0, i64 1
  store i32 12, i32* %17, align 4
  br label %18

18:                                               ; preds = %16, %13
  %19 = load i32, i32* %2, align 4
  %20 = icmp sge i32 %19, 2
  br i1 %20, label %21, label %36

21:                                               ; preds = %18
  %22 = load i32, i32* %2, align 4
  %23 = sub nsw i32 %22, 1
  %24 = sext i32 %23 to i64
  %25 = getelementptr inbounds [100 x i32], [100 x i32]* %3, i64 0, i64 %24
  %26 = load i32, i32* %25, align 4
  %27 = load i32, i32* %2, align 4
  %28 = sub nsw i32 %27, 2
  %29 = sext i32 %28 to i64
  %30 = getelementptr inbounds [100 x i32], [100 x i32]* %7, i64 0, i64 %29
  %31 = load i32, i32* %30, align 4
  %32 = add nsw i32 %26, %31
  %33 = load i32, i32* %2, align 4
  %34 = sext i32 %33 to i64
  %35 = getelementptr inbounds [100 x i32], [100 x i32]* %3, i64 0, i64 %34
  store i32 %32, i32* %35, align 4
  br label %36

36:                                               ; preds = %21, %18
  br label %37

37:                                               ; preds = %36
  %38 = load i32, i32* %2, align 4
  %39 = add nsw i32 %38, 1
  store i32 %39, i32* %2, align 4
  br label %10

40:                                               ; preds = %10
  store i32 1, i32* %2, align 4
  br label %41

41:                                               ; preds = %60, %40
  %42 = load i32, i32* %2, align 4
  %43 = icmp sle i32 %42, 12
  br i1 %43, label %44, label %63

44:                                               ; preds = %41
  %45 = load i32, i32* %6, align 4
  %46 = sub nsw i32 %45, 5
  store i32 %46, i32* %4, align 4
  %47 = load i32, i32* %2, align 4
  %48 = sext i32 %47 to i64
  %49 = getelementptr inbounds [100 x i32], [100 x i32]* %3, i64 0, i64 %48
  %50 = load i32, i32* %49, align 4
  %51 = load i32, i32* %4, align 4
  %52 = add nsw i32 %50, %51
  %53 = srem i32 %52, 7
  store i32 %53, i32* %5, align 4
  %54 = load i32, i32* %5, align 4
  %55 = icmp eq i32 %54, 0
  br i1 %55, label %56, label %59

56:                                               ; preds = %44
  %57 = load i32, i32* %2, align 4
  %58 = call i32 (i8*, ...) @printf(i8* getelementptr inbounds ([4 x i8], [4 x i8]* @.str.1, i64 0, i64 0), i32 %57)
  br label %59

59:                                               ; preds = %56, %44
  br label %60

60:                                               ; preds = %59
  %61 = load i32, i32* %2, align 4
  %62 = add nsw i32 %61, 1
  store i32 %62, i32* %2, align 4
  br label %41

63:                                               ; preds = %41
  ret i32 0
}

; Function Attrs: argmemonly nounwind willreturn
declare void @llvm.memcpy.p0i8.p0i8.i64(i8* noalias nocapture writeonly, i8* noalias nocapture readonly, i64, i1 immarg) #1

declare dso_local i32 @__isoc99_scanf(i8*, ...) #2

declare dso_local i32 @printf(i8*, ...) #2


!llvm.module.flags = !{!0}
!llvm.ident = !{!1}

!0 = !{i32 1, !"wchar_size", i32 4}
!1 = !{!"clang version 10.0.0-4ubuntu1 "}
